target datalayout = "e-m:e-p270:32:32-p271:32:32-p272:64:64-i64:64-i128:128-f80:128-n8:16:32:64-S128"
target triple = "x86_64-pc-linux-gnu"

%struct.Llb_Mtr_t_ = type { i32, i32, i32, i32, ptr, ptr, ptr, ptr, ptr, ptr, ptr }

; Function Attrs: nounwind uwtable
define void @Llb_ManClusterCompress(ptr noundef %0) #0 {
  %2 = alloca ptr, align 8
  %3 = alloca i32, align 4
  %4 = alloca i32, align 4
  store ptr %0, ptr %2, align 8, !tbaa !3
  call void @llvm.lifetime.start.p0(i64 4, ptr %3) #4
  call void @llvm.lifetime.start.p0(i64 4, ptr %4) #4
  store i32 0, ptr %4, align 4, !tbaa !8
  store i32 0, ptr %3, align 4, !tbaa !8
  br label %5

5:                                                ; preds = %87, %1
  %6 = load i32, ptr %3, align 4, !tbaa !8
  %7 = load ptr, ptr %2, align 8, !tbaa !3
  %8 = getelementptr inbounds nuw %struct.Llb_Mtr_t_, ptr %7, i32 0, i32 3
  %9 = load i32, ptr %8, align 4, !tbaa !24
  %10 = icmp slt i32 %6, %9
  br i1 %10, label %11, label %90

11:                                               ; preds = %5
  %12 = load ptr, ptr %2, align 8, !tbaa !3
  %13 = getelementptr inbounds nuw %struct.Llb_Mtr_t_, ptr %12, i32 0, i32 5
  %14 = load ptr, ptr %13, align 8, !tbaa !58
  %15 = load i32, ptr %3, align 4, !tbaa !8
  %16 = sext i32 %15 to i64
  %17 = getelementptr inbounds ptr, ptr %14, i64 %16
  %18 = load ptr, ptr %17, align 8, !tbaa !59
  %19 = icmp eq ptr %18, null
  br i1 %19, label %20, label %45

20:                                               ; preds = %11
  %21 = load ptr, ptr %2, align 8, !tbaa !3
  %22 = getelementptr inbounds nuw %struct.Llb_Mtr_t_, ptr %21, i32 0, i32 7
  %23 = load ptr, ptr %22, align 8, !tbaa !18
  %24 = load i32, ptr %3, align 4, !tbaa !8
  %25 = sext i32 %24 to i64
  %26 = getelementptr inbounds ptr, ptr %23, i64 %25
  %27 = load ptr, ptr %26, align 8, !tbaa !19
  %28 = icmp ne ptr %27, null
  br i1 %28, label %29, label %43

29:                                               ; preds = %20
  %30 = load ptr, ptr %2, align 8, !tbaa !3
  %31 = getelementptr inbounds nuw %struct.Llb_Mtr_t_, ptr %30, i32 0, i32 7
  %32 = load ptr, ptr %31, align 8, !tbaa !18
  %33 = load i32, ptr %3, align 4, !tbaa !8
  %34 = sext i32 %33 to i64
  %35 = getelementptr inbounds ptr, ptr %32, i64 %34
  %36 = load ptr, ptr %35, align 8, !tbaa !19
  call void @free(ptr noundef %36) #4
  %37 = load ptr, ptr %2, align 8, !tbaa !3
  %38 = getelementptr inbounds nuw %struct.Llb_Mtr_t_, ptr %37, i32 0, i32 7
  %39 = load ptr, ptr %38, align 8, !tbaa !18
  %40 = load i32, ptr %3, align 4, !tbaa !8
  %41 = sext i32 %40 to i64
  %42 = getelementptr inbounds ptr, ptr %39, i64 %41
  store ptr null, ptr %42, align 8, !tbaa !19
  br label %44

43:                                               ; preds = %20
  br label %44

44:                                               ; preds = %43, %29
  br label %87

45:                                               ; preds = %11
  %46 = load ptr, ptr %2, align 8, !tbaa !3
  %47 = getelementptr inbounds nuw %struct.Llb_Mtr_t_, ptr %46, i32 0, i32 7
  %48 = load ptr, ptr %47, align 8, !tbaa !18
  %49 = load i32, ptr %3, align 4, !tbaa !8
  %50 = sext i32 %49 to i64
  %51 = getelementptr inbounds ptr, ptr %48, i64 %50
  %52 = load ptr, ptr %51, align 8, !tbaa !19
  %53 = load ptr, ptr %2, align 8, !tbaa !3
  %54 = getelementptr inbounds nuw %struct.Llb_Mtr_t_, ptr %53, i32 0, i32 7
  %55 = load ptr, ptr %54, align 8, !tbaa !18
  %56 = load i32, ptr %4, align 4, !tbaa !8
  %57 = sext i32 %56 to i64
  %58 = getelementptr inbounds ptr, ptr %55, i64 %57
  store ptr %52, ptr %58, align 8, !tbaa !19
  %59 = load ptr, ptr %2, align 8, !tbaa !3
  %60 = getelementptr inbounds nuw %struct.Llb_Mtr_t_, ptr %59, i32 0, i32 5
  %61 = load ptr, ptr %60, align 8, !tbaa !58
  %62 = load i32, ptr %3, align 4, !tbaa !8
  %63 = sext i32 %62 to i64
  %64 = getelementptr inbounds ptr, ptr %61, i64 %63
  %65 = load ptr, ptr %64, align 8, !tbaa !59
  %66 = load ptr, ptr %2, align 8, !tbaa !3
  %67 = getelementptr inbounds nuw %struct.Llb_Mtr_t_, ptr %66, i32 0, i32 5
  %68 = load ptr, ptr %67, align 8, !tbaa !58
  %69 = load i32, ptr %4, align 4, !tbaa !8
  %70 = sext i32 %69 to i64
  %71 = getelementptr inbounds ptr, ptr %68, i64 %70
  store ptr %65, ptr %71, align 8, !tbaa !59
  %72 = load ptr, ptr %2, align 8, !tbaa !3
  %73 = getelementptr inbounds nuw %struct.Llb_Mtr_t_, ptr %72, i32 0, i32 4
  %74 = load ptr, ptr %73, align 8, !tbaa !25
  %75 = load i32, ptr %3, align 4, !tbaa !8
  %76 = sext i32 %75 to i64
  %77 = getelementptr inbounds i32, ptr %74, i64 %76
  %78 = load i32, ptr %77, align 4, !tbaa !8
  %79 = load ptr, ptr %2, align 8, !tbaa !3
  %80 = getelementptr inbounds nuw %struct.Llb_Mtr_t_, ptr %79, i32 0, i32 4
  %81 = load ptr, ptr %80, align 8, !tbaa !25
  %82 = load i32, ptr %4, align 4, !tbaa !8
  %83 = sext i32 %82 to i64
  %84 = getelementptr inbounds i32, ptr %81, i64 %83
  store i32 %78, ptr %84, align 4, !tbaa !8
  %85 = load i32, ptr %4, align 4, !tbaa !8
  %86 = add nsw i32 %85, 1
  store i32 %86, ptr %4, align 4, !tbaa !8
  br label %87

87:                                               ; preds = %45, %44
  %88 = load i32, ptr %3, align 4, !tbaa !8
  %89 = add nsw i32 %88, 1
  store i32 %89, ptr %3, align 4, !tbaa !8
  br label %5, !llvm.loop !61

90:                                               ; preds = %5
  %91 = load i32, ptr %4, align 4, !tbaa !8
  %92 = load ptr, ptr %2, align 8, !tbaa !3
  %93 = getelementptr inbounds nuw %struct.Llb_Mtr_t_, ptr %92, i32 0, i32 3
  store i32 %91, ptr %93, align 4, !tbaa !24
  call void @llvm.lifetime.end.p0(i64 4, ptr %4) #4
  call void @llvm.lifetime.end.p0(i64 4, ptr %3) #4
  ret void
}