; Function Attrs: nounwind uwtable
define void @Llb_ManClusterCompress(ptr noundef captures(none) %0) local_unnamed_addr #1 {
  %2 = getelementptr inbounds nuw i8, ptr %0, i64 12
  %3 = load i32, ptr %2, align 4, !tbaa !22
  %4 = icmp sgt i32 %3, 0
  br i1 %4, label %.lr.ph, label %._crit_edge

.lr.ph:                                           ; preds = %1
  %5 = getelementptr inbounds nuw i8, ptr %0, i64 24
  %6 = getelementptr inbounds nuw i8, ptr %0, i64 40
  %7 = getelementptr inbounds nuw i8, ptr %0, i64 16
  br label %8

8:                                                ; preds = %.lr.ph, %29
  %indvars.iv = phi i64 [ 0, %.lr.ph ], [ %indvars.iv.next, %29 ]
  %.028 = phi i32 [ 0, %.lr.ph ], [ %.1, %29 ]
  %9 = load ptr, ptr %5, align 8, !tbaa !52
  %10 = getelementptr inbounds nuw ptr, ptr %9, i64 %indvars.iv
  %11 = load ptr, ptr %10, align 8, !tbaa !53
  %12 = icmp eq ptr %11, null
  %13 = load ptr, ptr %6, align 8, !tbaa !15
  %14 = getelementptr inbounds nuw ptr, ptr %13, i64 %indvars.iv
  %15 = load ptr, ptr %14, align 8, !tbaa !16
  br i1 %12, label %16, label %20

16:                                               ; preds = %8
  %.not = icmp eq ptr %15, null
  br i1 %.not, label %29, label %17

17:                                               ; preds = %16
  tail call void @free(ptr noundef nonnull %15) #5
  %18 = load ptr, ptr %6, align 8, !tbaa !15
  %19 = getelementptr inbounds nuw ptr, ptr %18, i64 %indvars.iv
  store ptr null, ptr %19, align 8, !tbaa !16
  br label %29

20:                                               ; preds = %8
  %21 = sext i32 %.028 to i64
  %22 = getelementptr inbounds ptr, ptr %13, i64 %21
  store ptr %15, ptr %22, align 8, !tbaa !16
  %23 = getelementptr inbounds ptr, ptr %9, i64 %21
  store ptr %11, ptr %23, align 8, !tbaa !53
  %24 = load ptr, ptr %7, align 8, !tbaa !24
  %25 = getelementptr inbounds nuw i32, ptr %24, i64 %indvars.iv
  %26 = load i32, ptr %25, align 4, !tbaa !19
  %27 = getelementptr inbounds i32, ptr %24, i64 %21
  store i32 %26, ptr %27, align 4, !tbaa !19
  %28 = add nsw i32 %.028, 1
  br label %29

29:                                               ; preds = %17, %16, %20
  %.1 = phi i32 [ %.028, %17 ], [ %.028, %16 ], [ %28, %20 ]
  %indvars.iv.next = add nuw nsw i64 %indvars.iv, 1
  %30 = load i32, ptr %2, align 4, !tbaa !22
  %31 = sext i32 %30 to i64
  %32 = icmp slt i64 %indvars.iv.next, %31
  br i1 %32, label %8, label %._crit_edge, !llvm.loop !55

._crit_edge:                                      ; preds = %29, %1
  %.0.lcssa = phi i32 [ 0, %1 ], [ %.1, %29 ]
  store i32 %.0.lcssa, ptr %2, align 4, !tbaa !22
  ret void
}